target datalayout = "e-m:e-p270:32:32-p271:32:32-p272:64:64-i64:64-i128:128-f80:128-n8:16:32:64-S128"
target triple = "x86_64-pc-linux-gnu"

%"struct.std::atomic.9" = type { %"struct.std::__atomic_base.10" }
%"struct.std::__atomic_base.10" = type { i8 }
%"class.grpc_event_engine::experimental::SliceBuffer" = type { %struct.grpc_slice_buffer }
%struct.grpc_slice_buffer = type { ptr, ptr, i64, i64, i64, [6 x %struct.grpc_slice] }
%struct.grpc_slice = type { ptr, %"union.grpc_slice::grpc_slice_data" }
%"union.grpc_slice::grpc_slice_data" = type { %"struct.grpc_slice::grpc_slice_data::grpc_slice_refcounted", [8 x i8] }
%"struct.grpc_slice::grpc_slice_data::grpc_slice_refcounted" = type { i64, ptr }
%"struct.std::atomic" = type { %"struct.std::__atomic_base" }
%"struct.std::__atomic_base" = type { i64 }
%"class.grpc_event_engine::experimental::PosixEndpointImpl" = type { %"class.grpc_core::RefCounted", %"class.absl::lts_20240722::Mutex", %"class.grpc_event_engine::experimental::PosixSocketWrapper", i32, i8, i8, double, i32, i32, i32, double, %"struct.std::atomic.1", %"class.grpc_event_engine::experimental::SliceBuffer", ptr, i32, i8, ptr, i64, ptr, ptr, ptr, ptr, [8 x i8], %"class.absl::lts_20240722::AnyInvocable", %"class.absl::lts_20240722::AnyInvocable", %"class.grpc_event_engine::experimental::EventEngine::ResolvedAddress", %"class.grpc_event_engine::experimental::EventEngine::ResolvedAddress", %"class.std::shared_ptr", %"class.grpc_core::MemoryOwner", %"class.grpc_event_engine::experimental::MemoryAllocator::Reservation", ptr, [8 x i8], %"class.absl::lts_20240722::AnyInvocable.6", i32, i8, i8, %"struct.std::atomic.9", %"class.std::unique_ptr", ptr, i32, %"class.grpc_event_engine::experimental::TracedBufferList", ptr, ptr, %"class.std::shared_ptr.13", [8 x i8] }
%"class.grpc_core::RefCounted" = type { %"class.grpc_core::PolymorphicRefCount", %"class.grpc_core::RefCount" }
%"class.grpc_core::PolymorphicRefCount" = type { ptr }
%"class.grpc_core::RefCount" = type { %"struct.std::atomic" }
%"class.absl::lts_20240722::Mutex" = type { %"struct.std::atomic" }
%"class.grpc_event_engine::experimental::PosixSocketWrapper" = type { i32 }
%"struct.std::atomic.1" = type { %"struct.std::__atomic_base.2" }
%"struct.std::__atomic_base.2" = type { i32 }
%"class.absl::lts_20240722::AnyInvocable" = type { %"class.absl::lts_20240722::internal_any_invocable::Impl" }
%"class.absl::lts_20240722::internal_any_invocable::Impl" = type { %"class.absl::lts_20240722::internal_any_invocable::CoreImpl" }
%"class.absl::lts_20240722::internal_any_invocable::CoreImpl" = type { %"union.absl::lts_20240722::internal_any_invocable::TypeErasedState", ptr, ptr }
%"union.absl::lts_20240722::internal_any_invocable::TypeErasedState" = type { %struct.anon }
%struct.anon = type { ptr, i64 }
%"class.grpc_event_engine::experimental::EventEngine::ResolvedAddress" = type { [128 x i8], i32 }
%"class.std::shared_ptr" = type { %"class.std::__shared_ptr" }
%"class.std::__shared_ptr" = type { ptr, %"class.std::__shared_count" }
%"class.std::__shared_count" = type { ptr }
%"class.grpc_core::MemoryOwner" = type { %"class.grpc_event_engine::experimental::MemoryAllocator" }
%"class.grpc_event_engine::experimental::MemoryAllocator" = type { %"class.std::shared_ptr.3" }
%"class.std::shared_ptr.3" = type { %"class.std::__shared_ptr.4" }
%"class.std::__shared_ptr.4" = type { ptr, %"class.std::__shared_count" }
%"class.grpc_event_engine::experimental::MemoryAllocator::Reservation" = type { %"class.std::shared_ptr.3", i64 }
%"class.absl::lts_20240722::AnyInvocable.6" = type { %"class.absl::lts_20240722::internal_any_invocable::Impl.7" }
%"class.absl::lts_20240722::internal_any_invocable::Impl.7" = type { %"class.absl::lts_20240722::internal_any_invocable::CoreImpl.8" }
%"class.absl::lts_20240722::internal_any_invocable::CoreImpl.8" = type { %"union.absl::lts_20240722::internal_any_invocable::TypeErasedState", ptr, ptr }
%"class.std::unique_ptr" = type { %"struct.std::__uniq_ptr_data" }
%"struct.std::__uniq_ptr_data" = type { %"class.std::__uniq_ptr_impl" }
%"class.std::__uniq_ptr_impl" = type { %"class.std::tuple" }
%"class.std::tuple" = type { %"struct.std::_Tuple_impl" }
%"struct.std::_Tuple_impl" = type { %"struct.std::_Head_base.12" }
%"struct.std::_Head_base.12" = type { ptr }
%"class.grpc_event_engine::experimental::TracedBufferList" = type { %"class.absl::lts_20240722::Mutex", ptr, ptr }
%"class.std::shared_ptr.13" = type { %"class.std::__shared_ptr.14" }
%"class.std::__shared_ptr.14" = type { ptr, %"class.std::__shared_count" }

; Function Attrs: inlinehint mustprogress nounwind uwtable
define linkonce_odr noundef nonnull align 8 dereferenceable(8) ptr @_ZSt3maxIdERKT_S2_S2_(ptr noundef nonnull align 8 dereferenceable(8) %0, ptr noundef nonnull align 8 dereferenceable(8) %1) #7 comdat {
  %3 = alloca ptr, align 8
  %4 = alloca ptr, align 8
  %5 = alloca ptr, align 8
  store ptr %0, ptr %4, align 8, !tbaa !93
  store ptr %1, ptr %5, align 8, !tbaa !93
  %6 = load ptr, ptr %4, align 8, !tbaa !93
  %7 = load double, ptr %6, align 8, !tbaa !92
  %8 = load ptr, ptr %5, align 8, !tbaa !93
  %9 = load double, ptr %8, align 8, !tbaa !92
  %10 = fcmp olt double %7, %9
  br i1 %10, label %11, label %13

11:                                               ; preds = %2
  %12 = load ptr, ptr %5, align 8, !tbaa !93
  store ptr %12, ptr %3, align 8
  br label %15

13:                                               ; preds = %2
  %14 = load ptr, ptr %4, align 8, !tbaa !93
  store ptr %14, ptr %3, align 8
  br label %15

15:                                               ; preds = %13, %11
  %16 = load ptr, ptr %3, align 8
  ret ptr %16
}

; Function Attrs: mustprogress uwtable
define void @_ZN17grpc_event_engine12experimental17PosixEndpointImpl14FinishEstimateEv(ptr noundef nonnull align 16 dereferenceable(904) %0) #4 align 2 {
  %2 = alloca ptr, align 8
  %3 = alloca double, align 8
  store ptr %0, ptr %2, align 8, !tbaa !42
  %4 = load ptr, ptr %2, align 8
  %5 = getelementptr inbounds nuw %"class.grpc_event_engine::experimental::PosixEndpointImpl", ptr %4, i32 0, i32 10
  %6 = load double, ptr %5, align 16, !tbaa !44
  %7 = getelementptr inbounds nuw %"class.grpc_event_engine::experimental::PosixEndpointImpl", ptr %4, i32 0, i32 6
  %8 = load double, ptr %7, align 8, !tbaa !91
  %9 = fmul double %8, 8.000000e-01
  %10 = fcmp ogt double %6, %9
  br i1 %10, label %11, label %19

11:                                               ; preds = %1
  call void @llvm.lifetime.start.p0(i64 8, ptr %3) #3
  %12 = getelementptr inbounds nuw %"class.grpc_event_engine::experimental::PosixEndpointImpl", ptr %4, i32 0, i32 6
  %13 = load double, ptr %12, align 8, !tbaa !91
  %14 = fmul double 2.000000e+00, %13
  store double %14, ptr %3, align 8, !tbaa !92
  %15 = getelementptr inbounds nuw %"class.grpc_event_engine::experimental::PosixEndpointImpl", ptr %4, i32 0, i32 10
  %16 = call noundef nonnull align 8 dereferenceable(8) ptr @_ZSt3maxIdERKT_S2_S2_(ptr noundef nonnull align 8 dereferenceable(8) %3, ptr noundef nonnull align 8 dereferenceable(8) %15)
  %17 = load double, ptr %16, align 8, !tbaa !92
  %18 = getelementptr inbounds nuw %"class.grpc_event_engine::experimental::PosixEndpointImpl", ptr %4, i32 0, i32 6
  store double %17, ptr %18, align 8, !tbaa !91
  call void @llvm.lifetime.end.p0(i64 8, ptr %3) #3
  br label %27

19:                                               ; preds = %1
  %20 = getelementptr inbounds nuw %"class.grpc_event_engine::experimental::PosixEndpointImpl", ptr %4, i32 0, i32 6
  %21 = load double, ptr %20, align 8, !tbaa !91
  %22 = getelementptr inbounds nuw %"class.grpc_event_engine::experimental::PosixEndpointImpl", ptr %4, i32 0, i32 10
  %23 = load double, ptr %22, align 16, !tbaa !44
  %24 = fmul double 1.000000e-02, %23
  %25 = call double @llvm.fmuladd.f64(double 0x3FEFAE147AE147AE, double %21, double %24)
  %26 = getelementptr inbounds nuw %"class.grpc_event_engine::experimental::PosixEndpointImpl", ptr %4, i32 0, i32 6
  store double %25, ptr %26, align 8, !tbaa !91
  br label %27

27:                                               ; preds = %19, %11
  %28 = getelementptr inbounds nuw %"class.grpc_event_engine::experimental::PosixEndpointImpl", ptr %4, i32 0, i32 10
  store double 0.000000e+00, ptr %28, align 16, !tbaa !44
  ret void
}