; Function Attrs: mustprogress nofree norecurse nosync nounwind willreturn memory(argmem: readwrite) uwtable
define void @_ZN17grpc_event_engine12experimental17PosixEndpointImpl14FinishEstimateEv(ptr noundef nonnull align 16 captures(none) dereferenceable(904) %0) local_unnamed_addr #6 align 2 {
  %2 = getelementptr inbounds nuw i8, ptr %0, i64 64
  %3 = load double, ptr %2, align 16, !tbaa !29
  %4 = getelementptr inbounds nuw i8, ptr %0, i64 40
  %5 = load double, ptr %4, align 8, !tbaa !78
  %6 = fmul double %5, 8.000000e-01
  %7 = fcmp ogt double %3, %6
  br i1 %7, label %8, label %11

8:                                                ; preds = %1
  %9 = fmul double %5, 2.000000e+00
  %10 = fcmp olt double %9, %3
  %.sroa.speculated = select i1 %10, double %3, double %9
  br label %14

11:                                               ; preds = %1
  %12 = fmul double %3, 1.000000e-02
  %13 = tail call double @llvm.fmuladd.f64(double %5, double 0x3FEFAE147AE147AE, double %12)
  br label %14

14:                                               ; preds = %11, %8
  %storemerge = phi double [ %13, %11 ], [ %.sroa.speculated, %8 ]
  store double %storemerge, ptr %4, align 8, !tbaa !78
  store double 0.000000e+00, ptr %2, align 16, !tbaa !29
  ret void
}